; Function Attrs: nounwind uwtable
define ptr @l_Lean_ForEachExprWhere_visit___rarg(ptr noundef %0, ptr noundef %1, ptr noundef %2, ptr noundef %3, ptr noundef %4, ptr noundef %5, i8 noundef zeroext %6) local_unnamed_addr #0 {
  %8 = getelementptr inbounds nuw i8, ptr %2, i64 16
  %9 = load ptr, ptr %8, align 8, !tbaa !9
  %10 = ptrtoint ptr %9 to i64
  %11 = and i64 %10, 1
  %.not = icmp eq i64 %11, 0
  br i1 %.not, label %12, label %lean_inc.exit36

12:                                               ; preds = %7
  %.val.i = load i32, ptr %9, align 4, !tbaa !4
  %13 = icmp sgt i32 %.val.i, 0
  br i1 %13, label %14, label %16, !prof !11

14:                                               ; preds = %12
  %15 = add nuw i32 %.val.i, 1
  store i32 %15, ptr %9, align 4, !tbaa !4
  br label %lean_inc.exit36

16:                                               ; preds = %12
  %.not.i = icmp eq i32 %.val.i, 0
  br i1 %.not.i, label %lean_inc.exit36, label %17

17:                                               ; preds = %16
  tail call void @lean_inc_ref_cold(ptr noundef nonnull %9) #3
  br label %lean_inc.exit36

lean_inc.exit36:                                  ; preds = %17, %16, %14, %7
  %18 = load ptr, ptr @l_Lean_ForEachExprWhere_visit___rarg___closed__1, align 8, !tbaa !9
  %19 = ptrtoint ptr %1 to i64
  %20 = and i64 %19, 1
  %.not50 = icmp eq i64 %20, 0
  br i1 %.not50, label %21, label %lean_inc.exit35

21:                                               ; preds = %lean_inc.exit36
  %.val.i37 = load i32, ptr %1, align 4, !tbaa !4
  %22 = icmp sgt i32 %.val.i37, 0
  br i1 %22, label %23, label %25, !prof !11

23:                                               ; preds = %21
  %24 = add nuw i32 %.val.i37, 1
  store i32 %24, ptr %1, align 4, !tbaa !4
  br label %lean_inc.exit35

25:                                               ; preds = %21
  %.not.i38 = icmp eq i32 %.val.i37, 0
  br i1 %.not.i38, label %lean_inc.exit35, label %26

26:                                               ; preds = %25
  tail call void @lean_inc_ref_cold(ptr noundef nonnull %1) #3
  br label %lean_inc.exit35

lean_inc.exit35:                                  ; preds = %26, %25, %23, %lean_inc.exit36
  %27 = tail call ptr @lean_apply_2(ptr noundef %1, ptr noundef nonnull inttoptr (i64 1 to ptr), ptr noundef %18) #3
  %28 = zext i8 %6 to i64
  %29 = shl nuw nsw i64 %28, 1
  %30 = or disjoint i64 %29, 1
  %31 = inttoptr i64 %30 to ptr
  br i1 %.not, label %32, label %lean_inc.exit34

32:                                               ; preds = %lean_inc.exit35
  %.val.i40 = load i32, ptr %9, align 4, !tbaa !4
  %33 = icmp sgt i32 %.val.i40, 0
  br i1 %33, label %34, label %36, !prof !11

34:                                               ; preds = %32
  %35 = add nuw i32 %.val.i40, 1
  store i32 %35, ptr %9, align 4, !tbaa !4
  br label %lean_inc.exit34

36:                                               ; preds = %32
  %.not.i41 = icmp eq i32 %.val.i40, 0
  br i1 %.not.i41, label %lean_inc.exit34, label %37

37:                                               ; preds = %36
  tail call void @lean_inc_ref_cold(ptr noundef nonnull %9) #3
  br label %lean_inc.exit34

lean_inc.exit34:                                  ; preds = %37, %36, %34, %lean_inc.exit35
  %38 = ptrtoint ptr %2 to i64
  %39 = and i64 %38, 1
  %.not51 = icmp eq i64 %39, 0
  br i1 %.not51, label %40, label %lean_inc.exit33

40:                                               ; preds = %lean_inc.exit34
  %.val.i43 = load i32, ptr %2, align 4, !tbaa !4
  %41 = icmp sgt i32 %.val.i43, 0
  br i1 %41, label %42, label %44, !prof !11

42:                                               ; preds = %40
  %43 = add nuw i32 %.val.i43, 1
  store i32 %43, ptr %2, align 4, !tbaa !4
  br label %lean_inc.exit33

44:                                               ; preds = %40
  %.not.i44 = icmp eq i32 %.val.i43, 0
  br i1 %.not.i44, label %lean_inc.exit33, label %45

45:                                               ; preds = %44
  tail call void @lean_inc_ref_cold(ptr noundef nonnull %2) #3
  br label %lean_inc.exit33

lean_inc.exit33:                                  ; preds = %45, %44, %42, %lean_inc.exit34
  tail call void @lean_inc_heartbeat() #3
  %46 = tail call noalias ptr @mi_malloc_small(i64 noundef 88) #3
  %47 = icmp eq ptr %46, null
  br i1 %47, label %48, label %lean_alloc_closure.exit

48:                                               ; preds = %lean_inc.exit33
  tail call void @lean_internal_panic_out_of_memory() #4
  unreachable

lean_alloc_closure.exit:                          ; preds = %lean_inc.exit33
  %49 = getelementptr inbounds nuw i8, ptr %46, i64 4
  store i32 1, ptr %46, align 4, !tbaa !4
  store i32 -184549288, ptr %49, align 4
  %50 = getelementptr inbounds nuw i8, ptr %46, i64 8
  store ptr @l_Lean_ForEachExprWhere_visit___rarg___lambda__3___boxed, ptr %50, align 8, !tbaa !9
  %51 = getelementptr inbounds nuw i8, ptr %46, i64 16
  store i16 9, ptr %51, align 8, !tbaa !15
  %52 = getelementptr inbounds nuw i8, ptr %46, i64 18
  store i16 8, ptr %52, align 2, !tbaa !15
  %53 = getelementptr inbounds nuw i8, ptr %46, i64 24
  store ptr %0, ptr %53, align 8, !tbaa !9
  %54 = getelementptr inbounds nuw i8, ptr %46, i64 32
  store ptr %1, ptr %54, align 8, !tbaa !9
  %55 = getelementptr inbounds nuw i8, ptr %46, i64 40
  store ptr %2, ptr %55, align 8, !tbaa !9
  %56 = getelementptr inbounds nuw i8, ptr %46, i64 48
  store ptr %3, ptr %56, align 8, !tbaa !9
  %57 = getelementptr inbounds nuw i8, ptr %46, i64 56
  store ptr %4, ptr %57, align 8, !tbaa !9
  %58 = getelementptr inbounds nuw i8, ptr %46, i64 64
  store ptr %31, ptr %58, align 8, !tbaa !9
  %59 = getelementptr inbounds nuw i8, ptr %46, i64 72
  store ptr %5, ptr %59, align 8, !tbaa !9
  %60 = getelementptr inbounds nuw i8, ptr %46, i64 80
  store ptr %9, ptr %60, align 8, !tbaa !9
  br i1 %.not, label %61, label %lean_inc.exit

61:                                               ; preds = %lean_alloc_closure.exit
  %.val.i46 = load i32, ptr %9, align 4, !tbaa !4
  %62 = icmp sgt i32 %.val.i46, 0
  br i1 %62, label %63, label %65, !prof !11

63:                                               ; preds = %61
  %64 = add nuw i32 %.val.i46, 1
  store i32 %64, ptr %9, align 4, !tbaa !4
  br label %lean_inc.exit

65:                                               ; preds = %61
  %.not.i47 = icmp eq i32 %.val.i46, 0
  br i1 %.not.i47, label %lean_inc.exit, label %66

66:                                               ; preds = %65
  tail call void @lean_inc_ref_cold(ptr noundef nonnull %9) #3
  br label %lean_inc.exit

lean_inc.exit:                                    ; preds = %66, %65, %63, %lean_alloc_closure.exit
  %67 = tail call ptr @lean_apply_4(ptr noundef %9, ptr noundef nonnull inttoptr (i64 1 to ptr), ptr noundef nonnull inttoptr (i64 1 to ptr), ptr noundef %27, ptr noundef nonnull %46) #3
  tail call void @lean_inc_heartbeat() #3
  %68 = tail call noalias ptr @mi_malloc_small(i64 noundef 32) #3
  %69 = icmp eq ptr %68, null
  br i1 %69, label %70, label %lean_alloc_closure.exit49

70:                                               ; preds = %lean_inc.exit
  tail call void @lean_internal_panic_out_of_memory() #4
  unreachable

lean_alloc_closure.exit49:                        ; preds = %lean_inc.exit
  %71 = getelementptr inbounds nuw i8, ptr %68, i64 4
  store i32 1, ptr %68, align 4, !tbaa !4
  store i32 -184549344, ptr %71, align 4
  %72 = getelementptr inbounds nuw i8, ptr %68, i64 8
  store ptr @l_Lean_ForEachExprWhere_visit___rarg___lambda__4, ptr %72, align 8, !tbaa !9
  %73 = getelementptr inbounds nuw i8, ptr %68, i64 16
  store i16 2, ptr %73, align 8, !tbaa !15
  %74 = getelementptr inbounds nuw i8, ptr %68, i64 18
  store i16 1, ptr %74, align 2, !tbaa !15
  %75 = getelementptr inbounds nuw i8, ptr %68, i64 24
  store ptr %2, ptr %75, align 8, !tbaa !9
  %76 = tail call ptr @lean_apply_4(ptr noundef %9, ptr noundef nonnull inttoptr (i64 1 to ptr), ptr noundef nonnull inttoptr (i64 1 to ptr), ptr noundef %67, ptr noundef nonnull %68) #3
  ret ptr %76
}